; ModuleID = '20/621.c'
source_filename = "20/621.c"
target datalayout = "e-m:e-p270:32:32-p271:32:32-p272:64:64-i64:64-f80:128-n8:16:32:64-S128"
target triple = "x86_64-pc-linux-gnu"

@.str = private unnamed_addr constant [3 x i8] c"%s\00", align 1
@.str.1 = private unnamed_addr constant [3 x i8] c"%c\00", align 1
@.str.2 = private unnamed_addr constant [2 x i8] c"\0A\00", align 1

; Function Attrs: noinline nounwind uwtable
define dso_local void @main() #0 {
  %1 = alloca [16 x i8], align 16
  %2 = alloca [4 x i8], align 1
  %3 = alloca [20 x i8], align 16
  %4 = alloca i8*, align 8
  %5 = alloca i8*, align 8
  %6 = alloca i32, align 4
  %7 = alloca i32, align 4
  br label %8

8:                                                ; preds = %133, %0
  %9 = getelementptr inbounds [16 x i8], [16 x i8]* %1, i64 0, i64 0
  %10 = call i32 (i8*, ...) @__isoc99_scanf(i8* getelementptr inbounds ([3 x i8], [3 x i8]* @.str, i64 0, i64 0), i8* %9)
  %11 = icmp ne i32 %10, -1
  br i1 %11, label %12, label %135

12:                                               ; preds = %8
  %13 = getelementptr inbounds [4 x i8], [4 x i8]* %2, i64 0, i64 0
  %14 = call i32 (i8*, ...) @__isoc99_scanf(i8* getelementptr inbounds ([3 x i8], [3 x i8]* @.str, i64 0, i64 0), i8* %13)
  %15 = getelementptr inbounds [16 x i8], [16 x i8]* %1, i64 0, i64 0
  store i8* %15, i8** %4, align 8
  %16 = getelementptr inbounds [16 x i8], [16 x i8]* %1, i64 0, i64 0
  store i8* %16, i8** %5, align 8
  store i32 0, i32* %6, align 4
  br label %17

17:                                               ; preds = %36, %12
  %18 = load i32, i32* %6, align 4
  %19 = sext i32 %18 to i64
  %20 = getelementptr inbounds [16 x i8], [16 x i8]* %1, i64 0, i64 0
  %21 = call i64 @strlen(i8* %20) #3
  %22 = icmp ult i64 %19, %21
  br i1 %22, label %23, label %39

23:                                               ; preds = %17
  %24 = load i8*, i8** %4, align 8
  %25 = load i8, i8* %24, align 1
  %26 = sext i8 %25 to i32
  %27 = load i8*, i8** %5, align 8
  %28 = load i8, i8* %27, align 1
  %29 = sext i8 %28 to i32
  %30 = icmp sgt i32 %26, %29
  br i1 %30, label %31, label %33

31:                                               ; preds = %23
  %32 = load i8*, i8** %4, align 8
  store i8* %32, i8** %5, align 8
  br label %33

33:                                               ; preds = %31, %23
  %34 = load i8*, i8** %4, align 8
  %35 = getelementptr inbounds i8, i8* %34, i32 1
  store i8* %35, i8** %4, align 8
  br label %36

36:                                               ; preds = %33
  %37 = load i32, i32* %6, align 4
  %38 = add nsw i32 %37, 1
  store i32 %38, i32* %6, align 4
  br label %17

39:                                               ; preds = %17
  %40 = getelementptr inbounds [16 x i8], [16 x i8]* %1, i64 0, i64 0
  store i8* %40, i8** %4, align 8
  store i32 0, i32* %6, align 4
  br label %41

41:                                               ; preds = %55, %39
  %42 = load i8*, i8** %4, align 8
  %43 = load i8, i8* %42, align 1
  %44 = sext i8 %43 to i32
  %45 = load i8*, i8** %5, align 8
  %46 = load i8, i8* %45, align 1
  %47 = sext i8 %46 to i32
  %48 = icmp ne i32 %44, %47
  br i1 %48, label %49, label %60

49:                                               ; preds = %41
  %50 = load i8*, i8** %4, align 8
  %51 = load i8, i8* %50, align 1
  %52 = load i32, i32* %6, align 4
  %53 = sext i32 %52 to i64
  %54 = getelementptr inbounds [20 x i8], [20 x i8]* %3, i64 0, i64 %53
  store i8 %51, i8* %54, align 1
  br label %55

55:                                               ; preds = %49
  %56 = load i8*, i8** %4, align 8
  %57 = getelementptr inbounds i8, i8* %56, i32 1
  store i8* %57, i8** %4, align 8
  %58 = load i32, i32* %6, align 4
  %59 = add nsw i32 %58, 1
  store i32 %59, i32* %6, align 4
  br label %41

60:                                               ; preds = %41
  %61 = load i8*, i8** %5, align 8
  %62 = load i8, i8* %61, align 1
  %63 = load i32, i32* %6, align 4
  %64 = sext i32 %63 to i64
  %65 = getelementptr inbounds [20 x i8], [20 x i8]* %3, i64 0, i64 %64
  store i8 %62, i8* %65, align 1
  %66 = load i8*, i8** %5, align 8
  %67 = getelementptr inbounds i8, i8* %66, i32 1
  store i8* %67, i8** %5, align 8
  %68 = load i32, i32* %6, align 4
  %69 = add nsw i32 %68, 1
  store i32 %69, i32* %7, align 4
  br label %70

70:                                               ; preds = %86, %60
  %71 = load i32, i32* %7, align 4
  %72 = load i32, i32* %6, align 4
  %73 = add nsw i32 3, %72
  %74 = icmp sle i32 %71, %73
  br i1 %74, label %75, label %89

75:                                               ; preds = %70
  %76 = load i32, i32* %7, align 4
  %77 = load i32, i32* %6, align 4
  %78 = sub nsw i32 %76, %77
  %79 = sub nsw i32 %78, 1
  %80 = sext i32 %79 to i64
  %81 = getelementptr inbounds [4 x i8], [4 x i8]* %2, i64 0, i64 %80
  %82 = load i8, i8* %81, align 1
  %83 = load i32, i32* %7, align 4
  %84 = sext i32 %83 to i64
  %85 = getelementptr inbounds [20 x i8], [20 x i8]* %3, i64 0, i64 %84
  store i8 %82, i8* %85, align 1
  br label %86

86:                                               ; preds = %75
  %87 = load i32, i32* %7, align 4
  %88 = add nsw i32 %87, 1
  store i32 %88, i32* %7, align 4
  br label %70

89:                                               ; preds = %70
  br label %90

90:                                               ; preds = %108, %89
  %91 = load i32, i32* %7, align 4
  %92 = sext i32 %91 to i64
  %93 = getelementptr inbounds [16 x i8], [16 x i8]* %1, i64 0, i64 0
  %94 = call i64 @strlen(i8* %93) #3
  %95 = getelementptr inbounds [4 x i8], [4 x i8]* %2, i64 0, i64 0
  %96 = call i64 @strlen(i8* %95) #3
  %97 = add i64 %94, %96
  %98 = icmp ult i64 %92, %97
  br i1 %98, label %99, label %113

99:                                               ; preds = %90
  %100 = load i32, i32* %6, align 4
  %101 = add nsw i32 %100, 1
  %102 = sext i32 %101 to i64
  %103 = getelementptr inbounds [16 x i8], [16 x i8]* %1, i64 0, i64 %102
  %104 = load i8, i8* %103, align 1
  %105 = load i32, i32* %7, align 4
  %106 = sext i32 %105 to i64
  %107 = getelementptr inbounds [20 x i8], [20 x i8]* %3, i64 0, i64 %106
  store i8 %104, i8* %107, align 1
  br label %108

108:                                              ; preds = %99
  %109 = load i32, i32* %7, align 4
  %110 = add nsw i32 %109, 1
  store i32 %110, i32* %7, align 4
  %111 = load i32, i32* %6, align 4
  %112 = add nsw i32 %111, 1
  store i32 %112, i32* %6, align 4
  br label %90

113:                                              ; preds = %90
  store i32 0, i32* %6, align 4
  br label %114

114:                                              ; preds = %130, %113
  %115 = load i32, i32* %6, align 4
  %116 = sext i32 %115 to i64
  %117 = getelementptr inbounds [16 x i8], [16 x i8]* %1, i64 0, i64 0
  %118 = call i64 @strlen(i8* %117) #3
  %119 = getelementptr inbounds [4 x i8], [4 x i8]* %2, i64 0, i64 0
  %120 = call i64 @strlen(i8* %119) #3
  %121 = add i64 %118, %120
  %122 = icmp ult i64 %116, %121
  br i1 %122, label %123, label %133

123:                                              ; preds = %114
  %124 = load i32, i32* %6, align 4
  %125 = sext i32 %124 to i64
  %126 = getelementptr inbounds [20 x i8], [20 x i8]* %3, i64 0, i64 %125
  %127 = load i8, i8* %126, align 1
  %128 = sext i8 %127 to i32
  %129 = call i32 (i8*, ...) @printf(i8* getelementptr inbounds ([3 x i8], [3 x i8]* @.str.1, i64 0, i64 0), i32 %128)
  br label %130

130:                                              ; preds = %123
  %131 = load i32, i32* %6, align 4
  %132 = add nsw i32 %131, 1
  store i32 %132, i32* %6, align 4
  br label %114

133:                                              ; preds = %114
  %134 = call i32 (i8*, ...) @printf(i8* getelementptr inbounds ([2 x i8], [2 x i8]* @.str.2, i64 0, i64 0))
  br label %8

135:                                              ; preds = %8
  ret void
}

declare dso_local i32 @__isoc99_scanf(i8*, ...) #1

; Function Attrs: nounwind readonly
declare dso_local i64 @strlen(i8*) #2

declare dso_local i32 @printf(i8*, ...) #1


!llvm.module.flags = !{!0}
!llvm.ident = !{!1}

!0 = !{i32 1, !"wchar_size", i32 4}
!1 = !{!"clang version 10.0.0-4ubuntu1 "}
